; Function Attrs: mustprogress nofree norecurse nosync nounwind willreturn memory(read, argmem: readwrite, inaccessiblemem: none) uwtable
define hidden range(i32 0, 2) i32 @opj_bio_inalign(ptr noundef captures(none) initializes((28, 32)) %0) local_unnamed_addr #7 {
  %2 = getelementptr inbounds nuw i8, ptr %0, i64 24
  %3 = load i32, ptr %2, align 8, !tbaa !12
  %4 = and i32 %3, 255
  %5 = icmp eq i32 %4, 255
  br i1 %5, label %6, label %16

6:                                                ; preds = %1
  store i32 65280, ptr %2, align 8, !tbaa !12
  %7 = getelementptr inbounds nuw i8, ptr %0, i64 28
  store i32 7, ptr %7, align 4, !tbaa !13
  %8 = getelementptr inbounds nuw i8, ptr %0, i64 16
  %9 = load ptr, ptr %8, align 8, !tbaa !3
  %10 = getelementptr inbounds nuw i8, ptr %0, i64 8
  %11 = load ptr, ptr %10, align 8, !tbaa !11
  %.not.i = icmp ult ptr %9, %11
  br i1 %.not.i, label %opj_bio_bytein.exit, label %opj_bio_bytein.exit.thread

opj_bio_bytein.exit:                              ; preds = %6
  %12 = getelementptr inbounds nuw i8, ptr %9, i64 1
  store ptr %12, ptr %8, align 8, !tbaa !3
  %13 = load i8, ptr %9, align 1, !tbaa !14
  %14 = zext i8 %13 to i32
  %15 = or disjoint i32 %14, 65280
  store i32 %15, ptr %2, align 8, !tbaa !12
  br label %16

16:                                               ; preds = %opj_bio_bytein.exit, %1
  %17 = getelementptr inbounds nuw i8, ptr %0, i64 28
  store i32 0, ptr %17, align 4, !tbaa !13
  br label %opj_bio_bytein.exit.thread

opj_bio_bytein.exit.thread:                       ; preds = %6, %16
  %.0 = phi i32 [ 1, %16 ], [ 0, %6 ]
  ret i32 %.0
}